target datalayout = "e-m:e-p270:32:32-p271:32:32-p272:64:64-i64:64-i128:128-f80:128-n8:16:32:64-S128"
target triple = "x86_64-pc-linux-gnu"

%struct.sio_par = type { i32, i32, i32, i32, i32, i32, i32, i32, i32, i32, i32, i32, [3 x i32], i32 }
%struct.PaSndioStream = type { %struct.PaUtilStreamRepresentation, %struct.PaUtilBufferProcessor, ptr, %struct.sio_par, i32, i32, i32, i64, ptr, ptr, i64, i64, i64 }
%struct.PaUtilStreamRepresentation = type { i64, ptr, ptr, ptr, ptr, ptr, %struct.PaStreamInfo }
%struct.PaStreamInfo = type { i32, double, double, double }
%struct.PaUtilBufferProcessor = type { i64, i64, i32, i32, i32, i32, i64, i32, i32, i32, i32, ptr, ptr, i32, i32, i32, i32, ptr, ptr, i64, i64, ptr, ptr, i64, ptr, ptr, i64, ptr, i64, i32, [2 x i64], [2 x ptr], i32, [2 x i64], [2 x ptr], %struct.PaUtilTriangularDitherGenerator, double, ptr, ptr }
%struct.PaUtilTriangularDitherGenerator = type { i32, i32, i32 }

; Function Attrs: nounwind uwtable
define internal i32 @StopStream(ptr noundef %0) #0 {
  %2 = alloca i32, align 4
  %3 = alloca ptr, align 8
  %4 = alloca ptr, align 8
  %5 = alloca ptr, align 8
  %6 = alloca i32, align 4
  store ptr %0, ptr %3, align 8
  %7 = load ptr, ptr %3, align 8
  store ptr %7, ptr %4, align 8
  %8 = load ptr, ptr %4, align 8
  %9 = getelementptr inbounds nuw %struct.PaSndioStream, ptr %8, i32 0, i32 5
  %10 = load i32, ptr %9, align 4
  %11 = icmp ne i32 %10, 0
  br i1 %11, label %12, label %13

12:                                               ; preds = %1
  store i32 0, ptr %2, align 4
  br label %38

13:                                               ; preds = %1
  %14 = load ptr, ptr %4, align 8
  %15 = getelementptr inbounds nuw %struct.PaSndioStream, ptr %14, i32 0, i32 5
  store i32 1, ptr %15, align 4
  %16 = load ptr, ptr %4, align 8
  %17 = getelementptr inbounds nuw %struct.PaSndioStream, ptr %16, i32 0, i32 0
  %18 = getelementptr inbounds nuw %struct.PaUtilStreamRepresentation, ptr %17, i32 0, i32 3
  %19 = load ptr, ptr %18, align 8
  %20 = icmp ne ptr %19, null
  br i1 %20, label %21, label %30

21:                                               ; preds = %13
  %22 = load ptr, ptr %4, align 8
  %23 = getelementptr inbounds nuw %struct.PaSndioStream, ptr %22, i32 0, i32 12
  %24 = load i64, ptr %23, align 8
  %25 = call i32 @pthread_join(i64 noundef %24, ptr noundef %5)
  store i32 %25, ptr %6, align 4
  %26 = load i32, ptr %6, align 4
  %27 = icmp ne i32 %26, 0
  br i1 %27, label %28, label %29

28:                                               ; preds = %21
  store i32 -9999, ptr %2, align 4
  br label %38

29:                                               ; preds = %21
  br label %30

30:                                               ; preds = %29, %13
  %31 = load ptr, ptr %4, align 8
  %32 = getelementptr inbounds nuw %struct.PaSndioStream, ptr %31, i32 0, i32 2
  %33 = load ptr, ptr %32, align 8
  %34 = call i32 @sio_stop(ptr noundef %33)
  %35 = icmp ne i32 %34, 0
  br i1 %35, label %37, label %36

36:                                               ; preds = %30
  store i32 -9999, ptr %2, align 4
  br label %38

37:                                               ; preds = %30
  store i32 0, ptr %2, align 4
  br label %38

38:                                               ; preds = %37, %36, %28, %12
  %39 = load i32, ptr %2, align 4
  ret i32 %39
}